; Function Attrs: mustprogress uwtable
define dso_local void @_ZN16cmStateDirectory14SetLinkOptionsERK2BTINSt7__cxx1112basic_stringIcSt11char_traitsIcESaIcEEEE(ptr noundef nonnull readonly align 8 captures(none) dereferenceable(40) %0, ptr noundef nonnull align 8 dereferenceable(48) %1) local_unnamed_addr #6 align 2 {
  %3 = load ptr, ptr %0, align 8, !tbaa !4
  %4 = getelementptr inbounds nuw i8, ptr %0, i64 8
  %5 = load i64, ptr %4, align 8, !tbaa !11
  %6 = load ptr, ptr %3, align 8, !tbaa !12
  %7 = getelementptr %"struct.cmStateDetail::BuildsystemDirectoryStateType", ptr %6, i64 %5
  %8 = getelementptr i8, ptr %7, i64 -208
  %9 = getelementptr inbounds nuw i8, ptr %0, i64 24
  %10 = load ptr, ptr %9, align 8, !tbaa !29
  %11 = getelementptr inbounds nuw i8, ptr %0, i64 32
  %12 = load i64, ptr %11, align 8, !tbaa !31
  %13 = load ptr, ptr %10, align 8, !tbaa !32
  %14 = getelementptr %"struct.cmStateDetail::SnapshotDataType", ptr %13, i64 %12
  %15 = getelementptr i8, ptr %14, i64 -16
  tail call void @_Z10SetContentISt6vectorI2BTINSt7__cxx1112basic_stringIcSt11char_traitsIcESaIcEEEESaIS8_EEmEvRT_RT0_RKS8_(ptr noundef nonnull align 8 dereferenceable(24) %8, ptr noundef nonnull align 8 dereferenceable(8) %15, ptr noundef nonnull align 8 dereferenceable(48) %1)
  ret void
}